; ModuleID = '38/1446.c'
source_filename = "38/1446.c"
target datalayout = "e-m:e-p270:32:32-p271:32:32-p272:64:64-i64:64-f80:128-n8:16:32:64-S128"
target triple = "x86_64-pc-linux-gnu"

@.str = private unnamed_addr constant [3 x i8] c"%d\00", align 1
@.str.1 = private unnamed_addr constant [4 x i8] c"%lf\00", align 1
@.str.2 = private unnamed_addr constant [7 x i8] c"%.5lf\0A\00", align 1

; Function Attrs: noinline nounwind uwtable
define dso_local i32 @main() #0 {
  %1 = alloca i32, align 4
  %2 = alloca i32, align 4
  %3 = alloca i32, align 4
  %4 = alloca i32, align 4
  %5 = alloca i32, align 4
  %6 = alloca [4000 x [101 x double]], align 16
  %7 = alloca [4000 x double], align 16
  %8 = alloca [4000 x double], align 16
  %9 = alloca [4000 x double], align 16
  store i32 0, i32* %1, align 4
  %10 = call i32 (i8*, ...) @__isoc99_scanf(i8* getelementptr inbounds ([3 x i8], [3 x i8]* @.str, i64 0, i64 0), i32* %2)
  store i32 0, i32* %4, align 4
  br label %11

11:                                               ; preds = %111, %0
  %12 = load i32, i32* %4, align 4
  %13 = load i32, i32* %2, align 4
  %14 = icmp slt i32 %12, %13
  br i1 %14, label %15, label %114

15:                                               ; preds = %11
  %16 = load i32, i32* %4, align 4
  %17 = sext i32 %16 to i64
  %18 = getelementptr inbounds [4000 x double], [4000 x double]* %8, i64 0, i64 %17
  store double 0.000000e+00, double* %18, align 8
  %19 = call i32 (i8*, ...) @__isoc99_scanf(i8* getelementptr inbounds ([3 x i8], [3 x i8]* @.str, i64 0, i64 0), i32* %3)
  store i32 0, i32* %5, align 4
  br label %20

20:                                               ; preds = %44, %15
  %21 = load i32, i32* %5, align 4
  %22 = load i32, i32* %3, align 4
  %23 = icmp slt i32 %21, %22
  br i1 %23, label %24, label %47

24:                                               ; preds = %20
  %25 = load i32, i32* %4, align 4
  %26 = sext i32 %25 to i64
  %27 = getelementptr inbounds [4000 x [101 x double]], [4000 x [101 x double]]* %6, i64 0, i64 %26
  %28 = load i32, i32* %5, align 4
  %29 = sext i32 %28 to i64
  %30 = getelementptr inbounds [101 x double], [101 x double]* %27, i64 0, i64 %29
  %31 = call i32 (i8*, ...) @__isoc99_scanf(i8* getelementptr inbounds ([4 x i8], [4 x i8]* @.str.1, i64 0, i64 0), double* %30)
  %32 = load i32, i32* %4, align 4
  %33 = sext i32 %32 to i64
  %34 = getelementptr inbounds [4000 x [101 x double]], [4000 x [101 x double]]* %6, i64 0, i64 %33
  %35 = load i32, i32* %5, align 4
  %36 = sext i32 %35 to i64
  %37 = getelementptr inbounds [101 x double], [101 x double]* %34, i64 0, i64 %36
  %38 = load double, double* %37, align 8
  %39 = load i32, i32* %4, align 4
  %40 = sext i32 %39 to i64
  %41 = getelementptr inbounds [4000 x double], [4000 x double]* %8, i64 0, i64 %40
  %42 = load double, double* %41, align 8
  %43 = fadd double %42, %38
  store double %43, double* %41, align 8
  br label %44

44:                                               ; preds = %24
  %45 = load i32, i32* %5, align 4
  %46 = add nsw i32 %45, 1
  store i32 %46, i32* %5, align 4
  br label %20

47:                                               ; preds = %20
  %48 = load i32, i32* %4, align 4
  %49 = sext i32 %48 to i64
  %50 = getelementptr inbounds [4000 x double], [4000 x double]* %8, i64 0, i64 %49
  %51 = load double, double* %50, align 8
  %52 = load i32, i32* %3, align 4
  %53 = sitofp i32 %52 to double
  %54 = fdiv double %51, %53
  %55 = load i32, i32* %4, align 4
  %56 = sext i32 %55 to i64
  %57 = getelementptr inbounds [4000 x double], [4000 x double]* %8, i64 0, i64 %56
  store double %54, double* %57, align 8
  %58 = load i32, i32* %4, align 4
  %59 = sext i32 %58 to i64
  %60 = getelementptr inbounds [4000 x double], [4000 x double]* %9, i64 0, i64 %59
  store double 0.000000e+00, double* %60, align 8
  store i32 0, i32* %5, align 4
  br label %61

61:                                               ; preds = %96, %47
  %62 = load i32, i32* %5, align 4
  %63 = load i32, i32* %3, align 4
  %64 = icmp slt i32 %62, %63
  br i1 %64, label %65, label %99

65:                                               ; preds = %61
  %66 = load i32, i32* %4, align 4
  %67 = sext i32 %66 to i64
  %68 = getelementptr inbounds [4000 x [101 x double]], [4000 x [101 x double]]* %6, i64 0, i64 %67
  %69 = load i32, i32* %5, align 4
  %70 = sext i32 %69 to i64
  %71 = getelementptr inbounds [101 x double], [101 x double]* %68, i64 0, i64 %70
  %72 = load double, double* %71, align 8
  %73 = load i32, i32* %4, align 4
  %74 = sext i32 %73 to i64
  %75 = getelementptr inbounds [4000 x double], [4000 x double]* %8, i64 0, i64 %74
  %76 = load double, double* %75, align 8
  %77 = fsub double %72, %76
  %78 = load i32, i32* %4, align 4
  %79 = sext i32 %78 to i64
  %80 = getelementptr inbounds [4000 x [101 x double]], [4000 x [101 x double]]* %6, i64 0, i64 %79
  %81 = load i32, i32* %5, align 4
  %82 = sext i32 %81 to i64
  %83 = getelementptr inbounds [101 x double], [101 x double]* %80, i64 0, i64 %82
  %84 = load double, double* %83, align 8
  %85 = load i32, i32* %4, align 4
  %86 = sext i32 %85 to i64
  %87 = getelementptr inbounds [4000 x double], [4000 x double]* %8, i64 0, i64 %86
  %88 = load double, double* %87, align 8
  %89 = fsub double %84, %88
  %90 = fmul double %77, %89
  %91 = load i32, i32* %4, align 4
  %92 = sext i32 %91 to i64
  %93 = getelementptr inbounds [4000 x double], [4000 x double]* %9, i64 0, i64 %92
  %94 = load double, double* %93, align 8
  %95 = fadd double %94, %90
  store double %95, double* %93, align 8
  br label %96

96:                                               ; preds = %65
  %97 = load i32, i32* %5, align 4
  %98 = add nsw i32 %97, 1
  store i32 %98, i32* %5, align 4
  br label %61

99:                                               ; preds = %61
  %100 = load i32, i32* %4, align 4
  %101 = sext i32 %100 to i64
  %102 = getelementptr inbounds [4000 x double], [4000 x double]* %9, i64 0, i64 %101
  %103 = load double, double* %102, align 8
  %104 = load i32, i32* %3, align 4
  %105 = sitofp i32 %104 to double
  %106 = fdiv double %103, %105
  %107 = call double @sqrt(double %106) #3
  %108 = load i32, i32* %4, align 4
  %109 = sext i32 %108 to i64
  %110 = getelementptr inbounds [4000 x double], [4000 x double]* %7, i64 0, i64 %109
  store double %107, double* %110, align 8
  br label %111

111:                                              ; preds = %99
  %112 = load i32, i32* %4, align 4
  %113 = add nsw i32 %112, 1
  store i32 %113, i32* %4, align 4
  br label %11

114:                                              ; preds = %11
  store i32 0, i32* %4, align 4
  br label %115

115:                                              ; preds = %125, %114
  %116 = load i32, i32* %4, align 4
  %117 = load i32, i32* %2, align 4
  %118 = icmp slt i32 %116, %117
  br i1 %118, label %119, label %128

119:                                              ; preds = %115
  %120 = load i32, i32* %4, align 4
  %121 = sext i32 %120 to i64
  %122 = getelementptr inbounds [4000 x double], [4000 x double]* %7, i64 0, i64 %121
  %123 = load double, double* %122, align 8
  %124 = call i32 (i8*, ...) @printf(i8* getelementptr inbounds ([7 x i8], [7 x i8]* @.str.2, i64 0, i64 0), double %123)
  br label %125

125:                                              ; preds = %119
  %126 = load i32, i32* %4, align 4
  %127 = add nsw i32 %126, 1
  store i32 %127, i32* %4, align 4
  br label %115

128:                                              ; preds = %115
  ret i32 0
}

declare dso_local i32 @__isoc99_scanf(i8*, ...) #1

; Function Attrs: nounwind
declare dso_local double @sqrt(double) #2

declare dso_local i32 @printf(i8*, ...) #1


!llvm.module.flags = !{!0}
!llvm.ident = !{!1}

!0 = !{i32 1, !"wchar_size", i32 4}
!1 = !{!"clang version 10.0.0-4ubuntu1 "}
